target datalayout = "e-m:e-p270:32:32-p271:32:32-p272:64:64-i64:64-i128:128-f80:128-n8:16:32:64-S128"
target triple = "x86_64-pc-linux-gnu"

@hf_bthci_evt_le_report = internal global i32 0, align 4
@hf_bthci_evt_sample_count = internal global i32 0, align 4
@hf_bthci_evt_i_sample = internal global i32 0, align 4
@hf_bthci_evt_q_sample = internal global i32 0, align 4
@ett_iq_sample_list = internal global i32 0, align 4
@ett_iq_samples = internal global i32 0, align 4
@.str.1841 = private unnamed_addr constant [11 x i8] c"IQ Samples\00", align 1
@.str.1842 = private unnamed_addr constant [25 x i8] c"Sample %2d, I:%4d, Q:%4d\00", align 1

; Function Attrs: null_pointer_is_valid sspstrong uwtable
define internal i32 @dissect_iq_sample_list(ptr noundef %0, i32 noundef %1, ptr noundef %2) #1 {
  %4 = alloca ptr, align 8
  %5 = alloca i32, align 4
  %6 = alloca ptr, align 8
  %7 = alloca i8, align 1
  %8 = alloca i8, align 1
  %9 = alloca ptr, align 8
  %10 = alloca ptr, align 8
  %11 = alloca ptr, align 8
  %12 = alloca ptr, align 8
  store ptr %0, ptr %4, align 8
  store i32 %1, ptr %5, align 4
  store ptr %2, ptr %6, align 8
  call void @llvm.lifetime.start.p0(i64 1, ptr %7) #11
  %13 = load ptr, ptr %6, align 8
  %14 = load i32, ptr @hf_bthci_evt_sample_count, align 4
  %15 = load ptr, ptr %4, align 8
  %16 = load i32, ptr %5, align 4
  %17 = call ptr @proto_tree_add_item(ptr noundef %13, i32 noundef %14, ptr noundef %15, i32 noundef %16, i32 noundef 1, i32 noundef 0)
  %18 = load ptr, ptr %4, align 8
  %19 = load i32, ptr %5, align 4
  %20 = call zeroext i8 @tvb_get_uint8(ptr noundef %18, i32 noundef %19)
  store i8 %20, ptr %7, align 1
  %21 = load i32, ptr %5, align 4
  %22 = add i32 %21, 1
  store i32 %22, ptr %5, align 4
  %23 = load i8, ptr %7, align 1
  %24 = zext i8 %23 to i32
  %25 = icmp sgt i32 %24, 0
  br i1 %25, label %26, label %82

26:                                               ; preds = %3
  call void @llvm.lifetime.start.p0(i64 1, ptr %8) #11
  call void @llvm.lifetime.start.p0(i64 8, ptr %9) #11
  call void @llvm.lifetime.start.p0(i64 8, ptr %10) #11
  %27 = load ptr, ptr %6, align 8
  %28 = load i32, ptr @hf_bthci_evt_le_report, align 4
  %29 = load ptr, ptr %4, align 8
  %30 = load i32, ptr %5, align 4
  %31 = load i8, ptr %7, align 1
  %32 = zext i8 %31 to i32
  %33 = mul i32 2, %32
  %34 = call ptr (ptr, i32, ptr, i32, i32, ptr, ...) @proto_tree_add_none_format(ptr noundef %27, i32 noundef %28, ptr noundef %29, i32 noundef %30, i32 noundef %33, ptr noundef @.str.1841)
  store ptr %34, ptr %9, align 8
  %35 = load ptr, ptr %9, align 8
  %36 = load i32, ptr @ett_iq_sample_list, align 4
  %37 = call ptr @proto_item_add_subtree(ptr noundef %35, i32 noundef %36)
  store ptr %37, ptr %10, align 8
  store i8 0, ptr %8, align 1
  br label %38

38:                                               ; preds = %78, %26
  %39 = load i8, ptr %8, align 1
  %40 = zext i8 %39 to i32
  %41 = load i8, ptr %7, align 1
  %42 = zext i8 %41 to i32
  %43 = icmp slt i32 %40, %42
  br i1 %43, label %44, label %81

44:                                               ; preds = %38
  call void @llvm.lifetime.start.p0(i64 8, ptr %11) #11
  call void @llvm.lifetime.start.p0(i64 8, ptr %12) #11
  %45 = load ptr, ptr %10, align 8
  %46 = load i32, ptr @hf_bthci_evt_le_report, align 4
  %47 = load ptr, ptr %4, align 8
  %48 = load i32, ptr %5, align 4
  %49 = load i8, ptr %8, align 1
  %50 = zext i8 %49 to i32
  %51 = load ptr, ptr %4, align 8
  %52 = load i32, ptr %5, align 4
  %53 = call signext i8 @tvb_get_int8(ptr noundef %51, i32 noundef %52)
  %54 = sext i8 %53 to i32
  %55 = load ptr, ptr %4, align 8
  %56 = load i32, ptr %5, align 4
  %57 = add i32 %56, 1
  %58 = call signext i8 @tvb_get_int8(ptr noundef %55, i32 noundef %57)
  %59 = sext i8 %58 to i32
  %60 = call ptr (ptr, i32, ptr, i32, i32, ptr, ...) @proto_tree_add_none_format(ptr noundef %45, i32 noundef %46, ptr noundef %47, i32 noundef %48, i32 noundef 2, ptr noundef @.str.1842, i32 noundef %50, i32 noundef %54, i32 noundef %59)
  store ptr %60, ptr %11, align 8
  %61 = load ptr, ptr %11, align 8
  %62 = load i32, ptr @ett_iq_samples, align 4
  %63 = call ptr @proto_item_add_subtree(ptr noundef %61, i32 noundef %62)
  store ptr %63, ptr %12, align 8
  %64 = load ptr, ptr %12, align 8
  %65 = load i32, ptr @hf_bthci_evt_i_sample, align 4
  %66 = load ptr, ptr %4, align 8
  %67 = load i32, ptr %5, align 4
  %68 = call ptr @proto_tree_add_item(ptr noundef %64, i32 noundef %65, ptr noundef %66, i32 noundef %67, i32 noundef 1, i32 noundef 0)
  %69 = load i32, ptr %5, align 4
  %70 = add i32 %69, 1
  store i32 %70, ptr %5, align 4
  %71 = load ptr, ptr %12, align 8
  %72 = load i32, ptr @hf_bthci_evt_q_sample, align 4
  %73 = load ptr, ptr %4, align 8
  %74 = load i32, ptr %5, align 4
  %75 = call ptr @proto_tree_add_item(ptr noundef %71, i32 noundef %72, ptr noundef %73, i32 noundef %74, i32 noundef 1, i32 noundef 0)
  %76 = load i32, ptr %5, align 4
  %77 = add i32 %76, 1
  store i32 %77, ptr %5, align 4
  call void @llvm.lifetime.end.p0(i64 8, ptr %12) #11
  call void @llvm.lifetime.end.p0(i64 8, ptr %11) #11
  br label %78

78:                                               ; preds = %44
  %79 = load i8, ptr %8, align 1
  %80 = add i8 %79, 1
  store i8 %80, ptr %8, align 1
  br label %38, !llvm.loop !31

81:                                               ; preds = %38
  call void @llvm.lifetime.end.p0(i64 8, ptr %10) #11
  call void @llvm.lifetime.end.p0(i64 8, ptr %9) #11
  call void @llvm.lifetime.end.p0(i64 1, ptr %8) #11
  br label %82

82:                                               ; preds = %81, %3
  %83 = load i32, ptr %5, align 4
  call void @llvm.lifetime.end.p0(i64 1, ptr %7) #11
  ret i32 %83
}