; Function Attrs: null_pointer_is_valid sspstrong uwtable
define internal fastcc range(i32 2, 0) i32 @dissect_iq_sample_list(ptr noundef %0, i32 noundef range(i32 14, 16) %1, ptr noundef %2) unnamed_addr #1 {
  %4 = load i32, ptr @hf_bthci_evt_sample_count, align 4
  %5 = tail call ptr @proto_tree_add_item(ptr noundef %2, i32 noundef %4, ptr noundef %0, i32 noundef %1, i32 noundef 1, i32 noundef 0)
  %6 = tail call zeroext i8 @tvb_get_uint8(ptr noundef %0, i32 noundef %1)
  %7 = add nuw nsw i32 %1, 1
  %.not = icmp eq i8 %6, 0
  br i1 %.not, label %.loopexit, label %8

8:                                                ; preds = %3
  %9 = zext i8 %6 to i32
  %10 = load i32, ptr @hf_bthci_evt_le_report, align 4
  %11 = shl nuw nsw i32 %9, 1
  %12 = tail call ptr (ptr, i32, ptr, i32, i32, ptr, ...) @proto_tree_add_none_format(ptr noundef %2, i32 noundef %10, ptr noundef %0, i32 noundef %7, i32 noundef %11, ptr noundef nonnull @.str.1841)
  %13 = load i32, ptr @ett_iq_sample_list, align 4
  %14 = tail call ptr @proto_item_add_subtree(ptr noundef %12, i32 noundef %13)
  br label %15

15:                                               ; preds = %8, %15
  %indvars.iv = phi i32 [ 0, %8 ], [ %indvars.iv.next, %15 ]
  %.136 = phi i32 [ %7, %8 ], [ %29, %15 ]
  %16 = load i32, ptr @hf_bthci_evt_le_report, align 4
  %17 = tail call signext i8 @tvb_get_int8(ptr noundef %0, i32 noundef %.136)
  %18 = sext i8 %17 to i32
  %19 = add nuw nsw i32 %.136, 1
  %20 = tail call signext i8 @tvb_get_int8(ptr noundef %0, i32 noundef %19)
  %21 = sext i8 %20 to i32
  %22 = tail call ptr (ptr, i32, ptr, i32, i32, ptr, ...) @proto_tree_add_none_format(ptr noundef %14, i32 noundef %16, ptr noundef %0, i32 noundef %.136, i32 noundef 2, ptr noundef nonnull @.str.1842, i32 noundef %indvars.iv, i32 noundef %18, i32 noundef %21)
  %23 = load i32, ptr @ett_iq_samples, align 4
  %24 = tail call ptr @proto_item_add_subtree(ptr noundef %22, i32 noundef %23)
  %25 = load i32, ptr @hf_bthci_evt_i_sample, align 4
  %26 = tail call ptr @proto_tree_add_item(ptr noundef %24, i32 noundef %25, ptr noundef %0, i32 noundef %.136, i32 noundef 1, i32 noundef 0)
  %27 = load i32, ptr @hf_bthci_evt_q_sample, align 4
  %28 = tail call ptr @proto_tree_add_item(ptr noundef %24, i32 noundef %27, ptr noundef %0, i32 noundef %19, i32 noundef 1, i32 noundef 0)
  %29 = add nuw nsw i32 %.136, 2
  %indvars.iv.next = add nuw nsw i32 %indvars.iv, 1
  %exitcond.not = icmp eq i32 %indvars.iv.next, %9
  br i1 %exitcond.not, label %.loopexit, label %15, !llvm.loop !31

.loopexit:                                        ; preds = %15, %3
  %.0 = phi i32 [ %7, %3 ], [ %29, %15 ]
  ret i32 %.0
}